; Function Attrs: mustprogress nounwind uwtable
define dso_local { i64, ptr } @_ZNK4node4quic10TLSContext10servernameEv(ptr nocapture noundef nonnull readonly align 8 dereferenceable(352) %this) local_unnamed_addr #4 align 2 {
entry:
  %ssl_ = getelementptr inbounds i8, ptr %this, i64 328
  %0 = load ptr, ptr %ssl_, align 8
  %call2 = tail call noundef ptr @_ZN4node6crypto13GetServerNameEP6ssl_st(ptr noundef %0) #18
  %cmp.not = icmp eq ptr %call2, null
  br i1 %cmp.not, label %cond.end, label %cond.true

cond.true:                                        ; preds = %entry
  %call.i.i = tail call noundef i64 @strlen(ptr noundef nonnull dereferenceable(1) %call2) #18
  br label %cond.end

cond.end:                                         ; preds = %entry, %cond.true
  %retval.sroa.0.0 = phi i64 [ %call.i.i, %cond.true ], [ 0, %entry ]
  %.fca.0.insert = insertvalue { i64, ptr } poison, i64 %retval.sroa.0.0, 0
  %.fca.1.insert = insertvalue { i64, ptr } %.fca.0.insert, ptr %call2, 1
  ret { i64, ptr } %.fca.1.insert
}